; Function Attrs: mustprogress nounwind uwtable
define dso_local noundef zeroext i1 @_ZN4llvm5RISCV16isFaultFirstLoadERKNS_12MachineInstrE(ptr noundef nonnull align 8 dereferenceable(70) %0) local_unnamed_addr #2 {
  %2 = tail call noundef i32 @_ZNK4llvm12MachineInstr18getNumExplicitDefsEv(ptr noundef nonnull align 8 dereferenceable(70) %0) #25
  %3 = icmp eq i32 %2, 2
  br i1 %3, label %4, label %10

4:                                                ; preds = %1
  %5 = tail call noundef i32 @_ZNK4llvm12MachineInstr25findRegisterDefOperandIdxENS_8RegisterEPKNS_18TargetRegisterInfoEbb(ptr noundef nonnull align 8 dereferenceable(70) %0, i32 5, ptr noundef null, i1 noundef zeroext false, i1 noundef zeroext true) #25
  %.not = icmp eq i32 %5, -1
  br i1 %.not, label %10, label %6

6:                                                ; preds = %4
  %7 = getelementptr inbounds nuw i8, ptr %0, i64 68
  %8 = load i16, ptr %7, align 4
  %9 = add i16 %8, -3
  %spec.select.i = icmp ult i16 %9, -2
  br label %10

10:                                               ; preds = %6, %4, %1
  %11 = phi i1 [ false, %4 ], [ false, %1 ], [ %spec.select.i, %6 ]
  ret i1 %11
}